; Function Attrs: nounwind sspstrong uwtable
define internal i64 @enum_max(i32 noundef %0, ptr noundef readonly captures(none) %1, i64 noundef %2) #0 {
  %4 = tail call i64 @rb_ary_hidden_new_fill(i64 noundef 1) #14
  tail call void @rb_gc_writebarrier_unprotect(i64 noundef %4) #14
  %5 = inttoptr i64 %4 to ptr
  %6 = load i64, ptr %5, align 8, !tbaa !20
  %7 = and i64 %6, 8192
  %.not.i.i = icmp eq i64 %7, 0
  br i1 %.not.i.i, label %10, label %8

8:                                                ; preds = %3
  %9 = getelementptr inbounds nuw i8, ptr %5, i64 16
  br label %RARRAY_PTR.exit

10:                                               ; preds = %3
  %11 = getelementptr inbounds nuw i8, ptr %5, i64 32
  %12 = load ptr, ptr %11, align 8, !tbaa !22
  br label %RARRAY_PTR.exit

RARRAY_PTR.exit:                                  ; preds = %8, %10
  %.0.i.i = phi ptr [ %9, %8 ], [ %12, %10 ]
  %or.cond.i = icmp ugt i32 %0, 1
  br i1 %or.cond.i, label %13, label %rb_check_arity.exit

13:                                               ; preds = %RARRAY_PTR.exit
  tail call void @rb_error_arity(i32 noundef %0, i32 noundef 0, i32 noundef 1) #15
  unreachable

rb_check_arity.exit:                              ; preds = %RARRAY_PTR.exit
  %.not = icmp eq i32 %0, 0
  br i1 %.not, label %19, label %14

14:                                               ; preds = %rb_check_arity.exit
  %15 = load i64, ptr %1, align 8, !tbaa !7
  %16 = icmp eq i64 %15, 4
  br i1 %16, label %19, label %17

17:                                               ; preds = %14
  %18 = tail call i64 @rb_nmin_run(i64 noundef %2, i64 noundef %15, i32 noundef 0, i32 noundef 1, i32 noundef 0)
  br label %24

19:                                               ; preds = %14, %rb_check_arity.exit
  store i64 36, ptr %.0.i.i, align 8, !tbaa !73
  %20 = tail call i32 @rb_block_given_p() #14
  %.not13 = icmp eq i32 %20, 0
  %max_i.max_ii = select i1 %.not13, ptr @max_i, ptr @max_ii
  %21 = tail call i64 @rb_block_call(i64 noundef %2, i64 noundef 3073, i32 noundef 0, ptr noundef null, ptr noundef nonnull %max_i.max_ii, i64 noundef %4) #14
  %22 = load i64, ptr %.0.i.i, align 8, !tbaa !73
  %23 = icmp eq i64 %22, 36
  %. = select i1 %23, i64 4, i64 %22
  br label %24

24:                                               ; preds = %19, %17
  %.0 = phi i64 [ %18, %17 ], [ %., %19 ]
  ret i64 %.0
}